ARM GAS  /tmp/cciqlQc9.s 			page 1


   1              		.syntax unified
   2              		.cpu cortex-m3
   3              		.fpu softvfp
   4              		.eabi_attribute 20, 1
   5              		.eabi_attribute 21, 1
   6              		.eabi_attribute 23, 3
   7              		.eabi_attribute 24, 1
   8              		.eabi_attribute 25, 1
   9              		.eabi_attribute 26, 1
  10              		.eabi_attribute 30, 2
  11              		.eabi_attribute 34, 1
  12              		.eabi_attribute 18, 4
  13              		.thumb
  14              		.file	"main.cpp"
  15              		.text
  16              	.Ltext0:
  17              		.cfi_sections	.debug_frame
  18              		.section	.text._ZL7Thread1Pv,"ax",%progbits
  19              		.align	2
  20              		.p2align 4,,15
  21              		.thumb
  22              		.thumb_func
  23              		.type	_ZL7Thread1Pv, %function
  24              	_ZL7Thread1Pv:
  25              		.fnstart
  26              	.LFB42:
  27              		.file 1 "main.cpp"
  28              		.loc 1 94 0
  29              		.cfi_startproc
  30              		@ args = 0, pretend = 0, frame = 0
  31              		@ frame_needed = 0, uses_anonymous_args = 0
  32              	.LVL0:
  33 0000 70B5     		push	{r4, r5, r6, lr}
  34              		.save {r4, r5, r6, lr}
  35              		.cfi_def_cfa_offset 16
  36              		.cfi_offset 4, -16
  37              		.cfi_offset 5, -12
  38              		.cfi_offset 6, -8
  39              		.cfi_offset 14, -4
  40              		.loc 1 98 0
  41 0002 4FF40035 		mov	r5, #131072
  42 0006 2E46     		mov	r6, r5
  43 0008 054C     		ldr	r4, .L5
  44              	.LVL1:
  45              	.L2:
  46              		.loc 1 98 0 is_stmt 0 discriminator 1
  47 000a 6663     		str	r6, [r4, #52]
  48              		.loc 1 99 0 is_stmt 1 discriminator 1
  49 000c 4FF47A70 		mov	r0, #1000
  50 0010 FFF7FEFF 		bl	chThdSleep
  51              	.LVL2:
  52              		.loc 1 100 0 discriminator 1
  53 0014 2563     		str	r5, [r4, #48]
  54              		.loc 1 101 0 discriminator 1
  55 0016 0120     		movs	r0, #1
  56 0018 FFF7FEFF 		bl	chThdSleep
  57              	.LVL3:
ARM GAS  /tmp/cciqlQc9.s 			page 2


  58              		.loc 1 94 0 discriminator 1
  59 001c F5E7     		b	.L2
  60              	.L6:
  61 001e 00BF     		.align	2
  62              	.L5:
  63 0020 00120E40 		.word	1074663936
  64              		.cfi_endproc
  65              	.LFE42:
  66              		.fnend
  67              		.size	_ZL7Thread1Pv, .-_ZL7Thread1Pv
  68              		.section	.text._Z7I2CInitv,"ax",%progbits
  69              		.align	2
  70              		.p2align 4,,15
  71              		.global	_Z7I2CInitv
  72              		.thumb
  73              		.thumb_func
  74              		.type	_Z7I2CInitv, %function
  75              	_Z7I2CInitv:
  76              		.fnstart
  77              	.LFB36:
  78              		.loc 1 31 0
  79              		.cfi_startproc
  80              		@ args = 0, pretend = 0, frame = 0
  81              		@ frame_needed = 0, uses_anonymous_args = 0
  82 0000 10B5     		push	{r4, lr}
  83              		.save {r4, lr}
  84              		.cfi_def_cfa_offset 8
  85              		.cfi_offset 4, -8
  86              		.cfi_offset 14, -4
  87              	.LBB2:
  88              	.LBB3:
  89              		.loc 1 33 0
  90 0002 2023     		movs	r3, #32
  91              	@ 33 "main.cpp" 1
  92 0004 83F31188 		msr     BASEPRI, r3
  93              	@ 0 "" 2
  94              		.thumb
  95              	.LBE3:
  96              		.loc 1 34 0
  97 0008 0221     		movs	r1, #2
  98 000a 0D48     		ldr	r0, .L9
  99 000c FFF7FEFF 		bl	PIO_Configure
 100              	.LVL4:
 101              		.loc 1 38 0
 102 0010 0C4C     		ldr	r4, .L9+4
 103              		.loc 1 35 0
 104 0012 0D4B     		ldr	r3, .L9+8
 105 0014 0D48     		ldr	r0, .L9+12
 106              		.loc 1 37 0
 107 0016 0E4A     		ldr	r2, .L9+16
 108              		.loc 1 36 0
 109 0018 4FF40021 		mov	r1, #524288
 110              		.loc 1 35 0
 111 001c C3F8E400 		str	r0, [r3, #228]
 112              		.loc 1 36 0
 113 0020 1961     		str	r1, [r3, #16]
 114              		.loc 1 38 0
ARM GAS  /tmp/cciqlQc9.s 			page 3


 115 0022 2046     		mov	r0, r4
 116              		.loc 1 37 0
 117 0024 C3F8E420 		str	r2, [r3, #228]
 118              		.loc 1 38 0
 119 0028 0A49     		ldr	r1, .L9+20
 120 002a 0B4A     		ldr	r2, .L9+24
 121 002c FFF7FEFF 		bl	TWI_ConfigureMaster
 122              	.LVL5:
 123              		.loc 1 39 0
 124 0030 2146     		mov	r1, r4
 125 0032 0A48     		ldr	r0, .L9+28
 126 0034 FFF7FEFF 		bl	TWID_Initialize
 127              	.LVL6:
 128              	.LBB4:
 129              		.loc 1 40 0
 130 0038 0023     		movs	r3, #0
 131              	@ 40 "main.cpp" 1
 132 003a 83F31188 		msr     BASEPRI, r3
 133              	@ 0 "" 2
 134              		.thumb
 135 003e 10BD     		pop	{r4, pc}
 136              	.L10:
 137              		.align	2
 138              	.L9:
 139 0040 00000000 		.word	.LANCHOR0
 140 0044 00800140 		.word	1073840128
 141 0048 00040E40 		.word	1074660352
 142 004c 00434D50 		.word	1347240704
 143 0050 01434D50 		.word	1347240705
 144 0054 801A0600 		.word	400000
 145 0058 0090D003 		.word	64000000
 146 005c 00000000 		.word	.LANCHOR1
 147              	.LBE4:
 148              	.LBE2:
 149              		.cfi_endproc
 150              	.LFE36:
 151              		.fnend
 152              		.size	_Z7I2CInitv, .-_Z7I2CInitv
 153              		.section	.text._Z15I2CReadByte_subhh,"ax",%progbits
 154              		.align	2
 155              		.p2align 4,,15
 156              		.global	_Z15I2CReadByte_subhh
 157              		.thumb
 158              		.thumb_func
 159              		.type	_Z15I2CReadByte_subhh, %function
 160              	_Z15I2CReadByte_subhh:
 161              		.fnstart
 162              	.LFB37:
 163              		.loc 1 43 0
 164              		.cfi_startproc
 165              		@ args = 0, pretend = 0, frame = 8
 166              		@ frame_needed = 0, uses_anonymous_args = 0
 167              	.LVL7:
 168 0000 70B5     		push	{r4, r5, r6, lr}
 169              		.save {r4, r5, r6, lr}
 170              		.cfi_def_cfa_offset 16
 171              		.cfi_offset 4, -16
ARM GAS  /tmp/cciqlQc9.s 			page 4


 172              		.cfi_offset 5, -12
 173              		.cfi_offset 6, -8
 174              		.cfi_offset 14, -4
 175 0002 0A46     		mov	r2, r1
 176              		.pad #24
 177 0004 86B0     		sub	sp, sp, #24
 178              		.cfi_def_cfa_offset 40
 179              	.LBB5:
 180              	.LBB6:
 181              		.loc 1 45 0
 182 0006 2023     		movs	r3, #32
 183              	@ 45 "main.cpp" 1
 184 0008 83F31188 		msr     BASEPRI, r3
 185              	@ 0 "" 2
 186              		.thumb
 187              	.LBE6:
 188              		.loc 1 49 0
 189 000c 0024     		movs	r4, #0
 190 000e 0DF11705 		add	r5, sp, #23
 191 0012 0123     		movs	r3, #1
 192 0014 0146     		mov	r1, r0
 193              	.LVL8:
 194 0016 0095     		str	r5, [sp]
 195 0018 0294     		str	r4, [sp, #8]
 196 001a 0193     		str	r3, [sp, #4]
 197 001c 0548     		ldr	r0, .L14
 198              	.LVL9:
 199 001e FFF7FEFF 		bl	TWID_Read
 200              	.LVL10:
 201 0022 08B9     		cbnz	r0, .L12
 202              		.loc 1 49 0 is_stmt 0 discriminator 2
 203 0024 9DF81760 		ldrb	r6, [sp, #23]	@ zero_extendqisi2
 204              	.LVL11:
 205              	.L12:
 206              	.LBB7:
 207              		.loc 1 50 0 is_stmt 1
 208 0028 0023     		movs	r3, #0
 209              	@ 50 "main.cpp" 1
 210 002a 83F31188 		msr     BASEPRI, r3
 211              	@ 0 "" 2
 212              		.thumb
 213              	.LBE7:
 214              	.LBE5:
 215              		.loc 1 52 0
 216 002e 3046     		mov	r0, r6
 217 0030 06B0     		add	sp, sp, #24
 218              		.cfi_def_cfa_offset 16
 219              		@ sp needed
 220 0032 70BD     		pop	{r4, r5, r6, pc}
 221              	.LVL12:
 222              	.L15:
 223              		.align	2
 224              	.L14:
 225 0034 00000000 		.word	.LANCHOR1
 226              		.cfi_endproc
 227              	.LFE37:
 228              		.fnend
ARM GAS  /tmp/cciqlQc9.s 			page 5


 229              		.size	_Z15I2CReadByte_subhh, .-_Z15I2CReadByte_subhh
 230              		.section	.text._Z12I2CWriteBytehh,"ax",%progbits
 231              		.align	2
 232              		.p2align 4,,15
 233              		.global	_Z12I2CWriteBytehh
 234              		.thumb
 235              		.thumb_func
 236              		.type	_Z12I2CWriteBytehh, %function
 237              	_Z12I2CWriteBytehh:
 238              		.fnstart
 239              	.LFB38:
 240              		.loc 1 54 0
 241              		.cfi_startproc
 242              		@ args = 0, pretend = 0, frame = 8
 243              		@ frame_needed = 0, uses_anonymous_args = 0
 244              	.LVL13:
 245 0000 10B5     		push	{r4, lr}
 246              		.save {r4, lr}
 247              		.cfi_def_cfa_offset 8
 248              		.cfi_offset 4, -8
 249              		.cfi_offset 14, -4
 250              		.pad #24
 251 0002 86B0     		sub	sp, sp, #24
 252              		.cfi_def_cfa_offset 32
 253              		.loc 1 54 0
 254 0004 06AA     		add	r2, sp, #24
 255 0006 02F8011D 		strb	r1, [r2, #-1]!
 256              	.LBB8:
 257              	.LBB9:
 258              		.loc 1 56 0
 259 000a 2023     		movs	r3, #32
 260              	@ 56 "main.cpp" 1
 261 000c 83F31188 		msr     BASEPRI, r3
 262              	@ 0 "" 2
 263              		.thumb
 264              	.LBE9:
 265              		.loc 1 57 0
 266 0010 0024     		movs	r4, #0
 267 0012 0123     		movs	r3, #1
 268 0014 0092     		str	r2, [sp]
 269 0016 0146     		mov	r1, r0
 270              	.LVL14:
 271 0018 0193     		str	r3, [sp, #4]
 272 001a 0294     		str	r4, [sp, #8]
 273 001c 2346     		mov	r3, r4
 274 001e 2246     		mov	r2, r4
 275              	.LVL15:
 276 0020 0348     		ldr	r0, .L18
 277              	.LVL16:
 278 0022 FFF7FEFF 		bl	TWID_Write
 279              	.LVL17:
 280              	.LBB10:
 281              		.loc 1 58 0
 282 0026 2346     		mov	r3, r4
 283              	@ 58 "main.cpp" 1
 284 0028 83F31188 		msr     BASEPRI, r3
 285              	@ 0 "" 2
ARM GAS  /tmp/cciqlQc9.s 			page 6


 286              		.thumb
 287              	.LBE10:
 288              	.LBE8:
 289              		.loc 1 59 0
 290 002c 06B0     		add	sp, sp, #24
 291              		.cfi_def_cfa_offset 8
 292              	.LVL18:
 293              		@ sp needed
 294 002e 10BD     		pop	{r4, pc}
 295              	.LVL19:
 296              	.L19:
 297              		.align	2
 298              	.L18:
 299 0030 00000000 		.word	.LANCHOR1
 300              		.cfi_endproc
 301              	.LFE38:
 302              		.fnend
 303              		.size	_Z12I2CWriteBytehh, .-_Z12I2CWriteBytehh
 304              		.section	.text._Z11I2CReadByteh,"ax",%progbits
 305              		.align	2
 306              		.p2align 4,,15
 307              		.global	_Z11I2CReadByteh
 308              		.thumb
 309              		.thumb_func
 310              		.type	_Z11I2CReadByteh, %function
 311              	_Z11I2CReadByteh:
 312              		.fnstart
 313              	.LFB39:
 314              		.loc 1 61 0
 315              		.cfi_startproc
 316              		@ args = 0, pretend = 0, frame = 8
 317              		@ frame_needed = 0, uses_anonymous_args = 0
 318              	.LVL20:
 319 0000 30B5     		push	{r4, r5, lr}
 320              		.save {r4, r5, lr}
 321              		.cfi_def_cfa_offset 12
 322              		.cfi_offset 4, -12
 323              		.cfi_offset 5, -8
 324              		.cfi_offset 14, -4
 325 0002 0146     		mov	r1, r0
 326              		.pad #28
 327 0004 87B0     		sub	sp, sp, #28
 328              		.cfi_def_cfa_offset 40
 329              	.LBB11:
 330              	.LBB12:
 331              		.loc 1 63 0
 332 0006 2023     		movs	r3, #32
 333              	@ 63 "main.cpp" 1
 334 0008 83F31188 		msr     BASEPRI, r3
 335              	@ 0 "" 2
 336              		.thumb
 337              	.LBE12:
 338              		.loc 1 67 0
 339 000c 0123     		movs	r3, #1
 340 000e 0022     		movs	r2, #0
 341 0010 0DF11704 		add	r4, sp, #23
 342 0014 0193     		str	r3, [sp, #4]
ARM GAS  /tmp/cciqlQc9.s 			page 7


 343 0016 0094     		str	r4, [sp]
 344 0018 0292     		str	r2, [sp, #8]
 345 001a 1346     		mov	r3, r2
 346 001c 0548     		ldr	r0, .L23
 347              	.LVL21:
 348 001e FFF7FEFF 		bl	TWID_Read
 349              	.LVL22:
 350 0022 08B9     		cbnz	r0, .L21
 351              		.loc 1 67 0 is_stmt 0 discriminator 2
 352 0024 9DF81750 		ldrb	r5, [sp, #23]	@ zero_extendqisi2
 353              	.LVL23:
 354              	.L21:
 355              	.LBB13:
 356              		.loc 1 68 0 is_stmt 1
 357 0028 0023     		movs	r3, #0
 358              	@ 68 "main.cpp" 1
 359 002a 83F31188 		msr     BASEPRI, r3
 360              	@ 0 "" 2
 361              		.thumb
 362              	.LBE13:
 363              	.LBE11:
 364              		.loc 1 70 0
 365 002e 2846     		mov	r0, r5
 366 0030 07B0     		add	sp, sp, #28
 367              		.cfi_def_cfa_offset 12
 368              		@ sp needed
 369 0032 30BD     		pop	{r4, r5, pc}
 370              	.LVL24:
 371              	.L24:
 372              		.align	2
 373              	.L23:
 374 0034 00000000 		.word	.LANCHOR1
 375              		.cfi_endproc
 376              	.LFE39:
 377              		.fnend
 378              		.size	_Z11I2CReadByteh, .-_Z11I2CReadByteh
 379              		.section	.text._Z13I2CWriteByteshhh,"ax",%progbits
 380              		.align	2
 381              		.p2align 4,,15
 382              		.global	_Z13I2CWriteByteshhh
 383              		.thumb
 384              		.thumb_func
 385              		.type	_Z13I2CWriteByteshhh, %function
 386              	_Z13I2CWriteByteshhh:
 387              		.fnstart
 388              	.LFB40:
 389              		.loc 1 72 0
 390              		.cfi_startproc
 391              		@ args = 0, pretend = 0, frame = 8
 392              		@ frame_needed = 0, uses_anonymous_args = 0
 393              	.LVL25:
 394 0000 70B5     		push	{r4, r5, r6, lr}
 395              		.save {r4, r5, r6, lr}
 396              		.cfi_def_cfa_offset 16
 397              		.cfi_offset 4, -16
 398              		.cfi_offset 5, -12
 399              		.cfi_offset 6, -8
ARM GAS  /tmp/cciqlQc9.s 			page 8


 400              		.cfi_offset 14, -4
 401              		.pad #24
 402 0002 86B0     		sub	sp, sp, #24
 403              		.cfi_def_cfa_offset 40
 404              		.loc 1 72 0
 405 0004 06AC     		add	r4, sp, #24
 406 0006 0E46     		mov	r6, r1
 407 0008 04F8012D 		strb	r2, [r4, #-1]!
 408              	.LBB14:
 409              	.LBB15:
 410              		.loc 1 74 0
 411 000c 2023     		movs	r3, #32
 412              	@ 74 "main.cpp" 1
 413 000e 83F31188 		msr     BASEPRI, r3
 414              	@ 0 "" 2
 415              		.thumb
 416              	.LBE15:
 417              		.loc 1 75 0
 418 0012 0123     		movs	r3, #1
 419 0014 0025     		movs	r5, #0
 420 0016 0146     		mov	r1, r0
 421              	.LVL26:
 422 0018 0193     		str	r3, [sp, #4]
 423 001a 0094     		str	r4, [sp]
 424 001c 3246     		mov	r2, r6
 425              	.LVL27:
 426 001e 0295     		str	r5, [sp, #8]
 427 0020 0348     		ldr	r0, .L27
 428              	.LVL28:
 429 0022 FFF7FEFF 		bl	TWID_Write
 430              	.LVL29:
 431              	.LBB16:
 432              		.loc 1 76 0
 433 0026 2B46     		mov	r3, r5
 434              	@ 76 "main.cpp" 1
 435 0028 83F31188 		msr     BASEPRI, r3
 436              	@ 0 "" 2
 437              		.thumb
 438              	.LBE16:
 439              	.LBE14:
 440              		.loc 1 77 0
 441 002c 06B0     		add	sp, sp, #24
 442              		.cfi_def_cfa_offset 16
 443              		@ sp needed
 444 002e 70BD     		pop	{r4, r5, r6, pc}
 445              	.LVL30:
 446              	.L28:
 447              		.align	2
 448              	.L27:
 449 0030 00000000 		.word	.LANCHOR1
 450              		.cfi_endproc
 451              	.LFE40:
 452              		.fnend
 453              		.size	_Z13I2CWriteByteshhh, .-_Z13I2CWriteByteshhh
 454              		.section	.text._Z12I2CReadByteshhPhh,"ax",%progbits
 455              		.align	2
 456              		.p2align 4,,15
ARM GAS  /tmp/cciqlQc9.s 			page 9


 457              		.global	_Z12I2CReadByteshhPhh
 458              		.thumb
 459              		.thumb_func
 460              		.type	_Z12I2CReadByteshhPhh, %function
 461              	_Z12I2CReadByteshhPhh:
 462              		.fnstart
 463              	.LFB41:
 464              		.loc 1 81 0
 465              		.cfi_startproc
 466              		@ args = 0, pretend = 0, frame = 0
 467              		@ frame_needed = 0, uses_anonymous_args = 0
 468              	.LVL31:
 469 0000 70B5     		push	{r4, r5, r6, lr}
 470              		.save {r4, r5, r6, lr}
 471              		.cfi_def_cfa_offset 16
 472              		.cfi_offset 4, -16
 473              		.cfi_offset 5, -12
 474              		.cfi_offset 6, -8
 475              		.cfi_offset 14, -4
 476 0002 1C46     		mov	r4, r3
 477              		.pad #16
 478 0004 84B0     		sub	sp, sp, #16
 479              		.cfi_def_cfa_offset 32
 480              		.loc 1 81 0
 481 0006 0E46     		mov	r6, r1
 482              	.LBB17:
 483              	.LBB18:
 484              		.loc 1 82 0
 485 0008 2023     		movs	r3, #32
 486              	.LVL32:
 487              	@ 82 "main.cpp" 1
 488 000a 83F31188 		msr     BASEPRI, r3
 489              	@ 0 "" 2
 490              	.LVL33:
 491              		.thumb
 492              	.LBE18:
 493              		.loc 1 85 0
 494 000e 0025     		movs	r5, #0
 495 0010 8DE81400 		stmia	sp, {r2, r4}
 496 0014 0146     		mov	r1, r0
 497              	.LVL34:
 498 0016 3246     		mov	r2, r6
 499              	.LVL35:
 500 0018 0295     		str	r5, [sp, #8]
 501 001a 0123     		movs	r3, #1
 502 001c 0548     		ldr	r0, .L33
 503              	.LVL36:
 504 001e FFF7FEFF 		bl	TWID_Read
 505              	.LVL37:
 506 0022 A842     		cmp	r0, r5
 507              		.loc 1 83 0
 508 0024 18BF     		it	ne
 509 0026 2C46     		movne	r4, r5
 510              	.LVL38:
 511              	.LBB19:
 512              		.loc 1 88 0
 513 0028 2B46     		mov	r3, r5
ARM GAS  /tmp/cciqlQc9.s 			page 10


 514              	@ 88 "main.cpp" 1
 515 002a 83F31188 		msr     BASEPRI, r3
 516              	@ 0 "" 2
 517              		.thumb
 518              	.LBE19:
 519              	.LBE17:
 520              		.loc 1 90 0
 521 002e 2046     		mov	r0, r4
 522 0030 04B0     		add	sp, sp, #16
 523              		.cfi_def_cfa_offset 16
 524              		@ sp needed
 525 0032 70BD     		pop	{r4, r5, r6, pc}
 526              	.LVL39:
 527              	.L34:
 528              		.align	2
 529              	.L33:
 530 0034 00000000 		.word	.LANCHOR1
 531              		.cfi_endproc
 532              	.LFE41:
 533              		.fnend
 534              		.size	_Z12I2CReadByteshhPhh, .-_Z12I2CReadByteshhPhh
 535              		.section	.text._ZL9GPSThreadPv,"ax",%progbits
 536              		.align	2
 537              		.p2align 4,,15
 538              		.thumb
 539              		.thumb_func
 540              		.type	_ZL9GPSThreadPv, %function
 541              	_ZL9GPSThreadPv:
 542              		.fnstart
 543              	.LFB43:
 544              		.loc 1 109 0
 545              		.cfi_startproc
 546              		@ args = 0, pretend = 0, frame = 168
 547              		@ frame_needed = 0, uses_anonymous_args = 0
 548              	.LVL40:
 549 0000 10B5     		push	{r4, lr}
 550              		.save {r4, lr}
 551              		.cfi_def_cfa_offset 8
 552              		.cfi_offset 4, -8
 553              		.cfi_offset 14, -4
 554              	.LBB20:
 555              		.loc 1 113 0
 556 0002 0024     		movs	r4, #0
 557              	.LBE20:
 558              		.loc 1 109 0
 559              		.pad #168
 560 0004 AAB0     		sub	sp, sp, #168
 561              		.cfi_def_cfa_offset 176
 562              	.LVL41:
 563              	.L36:
 564              	.LBB26:
 565              	.LBB21:
 566              		.loc 1 122 0
 567 0006 5348     		ldr	r0, .L50
 568 0008 4FF0FF31 		mov	r1, #-1
 569 000c FFF7FEFF 		bl	chIQGetTimeout
 570              	.LVL42:
ARM GAS  /tmp/cciqlQc9.s 			page 11


 571              		.loc 1 124 0
 572 0010 642C     		cmp	r4, #100
 573              		.loc 1 122 0
 574 0012 C0B2     		uxtb	r0, r0
 575              	.LVL43:
 576              		.loc 1 124 0
 577 0014 28BF     		it	cs
 578 0016 0024     		movcs	r4, #0
 579              	.LVL44:
 580              	.LBB22:
 581              		.loc 1 126 0
 582 0018 0D28     		cmp	r0, #13
 583 001a 0BD0     		beq	.L38
 584              		.loc 1 126 0 is_stmt 0 discriminator 1
 585 001c 0A28     		cmp	r0, #10
 586 001e 09D0     		beq	.L38
 587              		.loc 1 169 0 is_stmt 1
 588 0020 A0F12003 		sub	r3, r0, #32
 589 0024 5E2B     		cmp	r3, #94
 590 0026 EED8     		bhi	.L36
 591              	.LVL45:
 592              		.loc 1 170 0
 593 0028 2AAB     		add	r3, sp, #168
 594 002a 2344     		add	r3, r3, r4
 595 002c 03F8640C 		strb	r0, [r3, #-100]
 596 0030 0134     		adds	r4, r4, #1
 597              	.LVL46:
 598 0032 E8E7     		b	.L36
 599              	.L38:
 600              	.LVL47:
 601              	.LBB23:
 602              		.loc 1 127 0
 603 0034 2AAB     		add	r3, sp, #168
 604 0036 1C44     		add	r4, r4, r3
 605              	.LVL48:
 606              		.loc 1 129 0
 607 0038 11A8     		add	r0, sp, #68
 608              	.LVL49:
 609              		.loc 1 127 0
 610 003a 0023     		movs	r3, #0
 611              		.loc 1 129 0
 612 003c 4649     		ldr	r1, .L50+4
 613              		.loc 1 127 0
 614 003e 04F8643C 		strb	r3, [r4, #-100]
 615              	.LVL50:
 616              		.loc 1 129 0
 617 0042 FFF7FEFF 		bl	strstr
 618              	.LVL51:
 619              	.LBB24:
 620              		.loc 1 130 0
 621 0046 0028     		cmp	r0, #0
 622 0048 00F08280 		beq	.L44
 623              	.LBB25:
 624              		.loc 1 132 0
 625 004c 11A8     		add	r0, sp, #68
 626              	.LVL52:
 627 004e 4349     		ldr	r1, .L50+8
ARM GAS  /tmp/cciqlQc9.s 			page 12


 628 0050 FFF7FEFF 		bl	strtok
 629              	.LVL53:
 630 0054 6C46     		mov	r4, sp
 631              		.loc 1 133 0
 632 0056 0346     		mov	r3, r0
 633 0058 40B1     		cbz	r0, .L43
 634              	.LVL54:
 635              	.L42:
 636              		.loc 1 134 0
 637 005a 44F8043F 		str	r3, [r4, #4]!
 638              		.loc 1 135 0
 639 005e 0020     		movs	r0, #0
 640              	.LVL55:
 641 0060 3E49     		ldr	r1, .L50+8
 642 0062 FFF7FEFF 		bl	strtok
 643              	.LVL56:
 644              		.loc 1 133 0
 645 0066 0346     		mov	r3, r0
 646 0068 0028     		cmp	r0, #0
 647 006a F6D1     		bne	.L42
 648              	.L43:
 649              		.loc 1 141 0
 650 006c 4EF66024 		movw	r4, #60000
 651              		.loc 1 138 0
 652 0070 6820     		movs	r0, #104
 653              	.LVL57:
 654 0072 6B21     		movs	r1, #107
 655 0074 0022     		movs	r2, #0
 656 0076 FFF7FEFF 		bl	_Z13I2CWriteByteshhh
 657              	.LVL58:
 658              		.loc 1 139 0
 659 007a 6A46     		mov	r2, sp
 660 007c 3B21     		movs	r1, #59
 661 007e 0223     		movs	r3, #2
 662 0080 6820     		movs	r0, #104
 663 0082 FFF7FEFF 		bl	_Z12I2CReadByteshhPhh
 664              	.LVL59:
 665              		.loc 1 140 0
 666 0086 9DF80110 		ldrb	r1, [sp, #1]	@ zero_extendqisi2
 667 008a 9DF80030 		ldrb	r3, [sp]	@ zero_extendqisi2
 668              		.loc 1 146 0
 669 008e 3448     		ldr	r0, .L50+12
 670              		.loc 1 140 0
 671 0090 41EA0323 		orr	r3, r1, r3, lsl #8
 672              		.loc 1 141 0
 673 0094 03F5EA43 		add	r3, r3, #29952
 674 0098 3033     		adds	r3, r3, #48
 675 009a 9BB2     		uxth	r3, r3
 676 009c A342     		cmp	r3, r4
 677              		.loc 1 146 0
 678 009e 3149     		ldr	r1, .L50+16
 679              		.loc 1 141 0
 680 00a0 94BF     		ite	ls
 681 00a2 0024     		movls	r4, #0
 682 00a4 0124     		movhi	r4, #1
 683              	.LVL60:
 684              		.loc 1 146 0
ARM GAS  /tmp/cciqlQc9.s 			page 13


 685 00a6 FFF7FEFF 		bl	chprintf
 686              	.LVL61:
 687              		.loc 1 147 0
 688 00aa 2D48     		ldr	r0, .L50+12
 689 00ac 0499     		ldr	r1, [sp, #16]
 690 00ae FFF7FEFF 		bl	chprintf
 691              	.LVL62:
 692              		.loc 1 148 0
 693 00b2 2B48     		ldr	r0, .L50+12
 694 00b4 2C49     		ldr	r1, .L50+20
 695 00b6 FFF7FEFF 		bl	chprintf
 696              	.LVL63:
 697              		.loc 1 149 0
 698 00ba 2948     		ldr	r0, .L50+12
 699 00bc 2B49     		ldr	r1, .L50+24
 700 00be FFF7FEFF 		bl	chprintf
 701              	.LVL64:
 702              		.loc 1 150 0
 703 00c2 2748     		ldr	r0, .L50+12
 704 00c4 0599     		ldr	r1, [sp, #20]
 705 00c6 FFF7FEFF 		bl	chprintf
 706              	.LVL65:
 707              		.loc 1 151 0
 708 00ca 2548     		ldr	r0, .L50+12
 709 00cc 2649     		ldr	r1, .L50+20
 710 00ce FFF7FEFF 		bl	chprintf
 711              	.LVL66:
 712              		.loc 1 152 0
 713 00d2 2348     		ldr	r0, .L50+12
 714 00d4 2649     		ldr	r1, .L50+28
 715 00d6 FFF7FEFF 		bl	chprintf
 716              	.LVL67:
 717              		.loc 1 153 0
 718 00da 2148     		ldr	r0, .L50+12
 719 00dc 0699     		ldr	r1, [sp, #24]
 720 00de FFF7FEFF 		bl	chprintf
 721              	.LVL68:
 722              		.loc 1 154 0
 723 00e2 1F48     		ldr	r0, .L50+12
 724 00e4 2049     		ldr	r1, .L50+20
 725 00e6 FFF7FEFF 		bl	chprintf
 726              	.LVL69:
 727              		.loc 1 155 0
 728 00ea 1D48     		ldr	r0, .L50+12
 729 00ec 2149     		ldr	r1, .L50+32
 730 00ee FFF7FEFF 		bl	chprintf
 731              	.LVL70:
 732              		.loc 1 156 0
 733 00f2 1B48     		ldr	r0, .L50+12
 734 00f4 0799     		ldr	r1, [sp, #28]
 735 00f6 FFF7FEFF 		bl	chprintf
 736              	.LVL71:
 737              		.loc 1 157 0
 738 00fa 1948     		ldr	r0, .L50+12
 739 00fc 1A49     		ldr	r1, .L50+20
 740 00fe FFF7FEFF 		bl	chprintf
 741              	.LVL72:
ARM GAS  /tmp/cciqlQc9.s 			page 14


 742              		.loc 1 158 0
 743 0102 1748     		ldr	r0, .L50+12
 744 0104 1C49     		ldr	r1, .L50+36
 745 0106 FFF7FEFF 		bl	chprintf
 746              	.LVL73:
 747              		.loc 1 159 0
 748 010a 1548     		ldr	r0, .L50+12
 749 010c 0899     		ldr	r1, [sp, #32]
 750 010e FFF7FEFF 		bl	chprintf
 751              	.LVL74:
 752              		.loc 1 160 0
 753 0112 1348     		ldr	r0, .L50+12
 754 0114 1449     		ldr	r1, .L50+20
 755 0116 FFF7FEFF 		bl	chprintf
 756              	.LVL75:
 757              		.loc 1 161 0
 758 011a 1148     		ldr	r0, .L50+12
 759 011c 1749     		ldr	r1, .L50+40
 760 011e FFF7FEFF 		bl	chprintf
 761              	.LVL76:
 762              		.loc 1 162 0
 763 0122 0F48     		ldr	r0, .L50+12
 764 0124 0399     		ldr	r1, [sp, #12]
 765 0126 FFF7FEFF 		bl	chprintf
 766              	.LVL77:
 767              		.loc 1 163 0
 768 012a 0D48     		ldr	r0, .L50+12
 769 012c 0E49     		ldr	r1, .L50+20
 770 012e FFF7FEFF 		bl	chprintf
 771              	.LVL78:
 772              		.loc 1 164 0
 773 0132 0B48     		ldr	r0, .L50+12
 774 0134 1249     		ldr	r1, .L50+44
 775 0136 FFF7FEFF 		bl	chprintf
 776              	.LVL79:
 777              		.loc 1 165 0
 778 013a 2246     		mov	r2, r4
 779 013c 0848     		ldr	r0, .L50+12
 780 013e 1149     		ldr	r1, .L50+48
 781 0140 FFF7FEFF 		bl	chprintf
 782              	.LVL80:
 783              		.loc 1 166 0
 784 0144 0648     		ldr	r0, .L50+12
 785 0146 1049     		ldr	r1, .L50+52
 786 0148 FFF7FEFF 		bl	chprintf
 787              	.LVL81:
 788              	.LBE25:
 789              	.LBE24:
 790              		.loc 1 128 0
 791 014c 0024     		movs	r4, #0
 792              	.LVL82:
 793 014e 5AE7     		b	.L36
 794              	.LVL83:
 795              	.L44:
 796 0150 0446     		mov	r4, r0
 797 0152 58E7     		b	.L36
 798              	.L51:
ARM GAS  /tmp/cciqlQc9.s 			page 15


 799              		.align	2
 800              	.L50:
 801 0154 10000000 		.word	SD1+16
 802 0158 00000000 		.word	.LC0
 803 015c 08000000 		.word	.LC1
 804 0160 00000000 		.word	SD2
 805 0164 0C000000 		.word	.LC2
 806 0168 14000000 		.word	.LC3
 807 016c 18000000 		.word	.LC4
 808 0170 20000000 		.word	.LC5
 809 0174 28000000 		.word	.LC6
 810 0178 30000000 		.word	.LC7
 811 017c 34000000 		.word	.LC8
 812 0180 3C000000 		.word	.LC9
 813 0184 44000000 		.word	.LC10
 814 0188 48000000 		.word	.LC11
 815              	.LBE23:
 816              	.LBE22:
 817              	.LBE21:
 818              	.LBE26:
 819              		.cfi_endproc
 820              	.LFE43:
 821              		.fnend
 822              		.size	_ZL9GPSThreadPv, .-_ZL9GPSThreadPv
 823              		.section	.text.startup.main,"ax",%progbits
 824              		.align	2
 825              		.p2align 4,,15
 826              		.global	main
 827              		.thumb
 828              		.thumb_func
 829              		.type	main, %function
 830              	main:
 831              		.fnstart
 832              	.LFB44:
 833              		.loc 1 180 0
 834              		.cfi_startproc
 835              		@ args = 0, pretend = 0, frame = 0
 836              		@ frame_needed = 0, uses_anonymous_args = 0
 837 0000 10B5     		push	{r4, lr}
 838              		.save {r4, lr}
 839              		.cfi_def_cfa_offset 8
 840              		.cfi_offset 4, -8
 841              		.cfi_offset 14, -4
 842              		.pad #8
 843 0002 82B0     		sub	sp, sp, #8
 844              		.cfi_def_cfa_offset 16
 845              		.loc 1 182 0
 846 0004 FFF7FEFF 		bl	halInit
 847              	.LVL84:
 848              		.loc 1 191 0
 849 0008 0024     		movs	r4, #0
 850              		.loc 1 183 0
 851 000a FFF7FEFF 		bl	chSysInit
 852              	.LVL85:
 853              		.loc 1 186 0
 854 000e 0E48     		ldr	r0, .L54
 855 0010 0021     		movs	r1, #0
ARM GAS  /tmp/cciqlQc9.s 			page 16


 856 0012 FFF7FEFF 		bl	sdStart
 857              	.LVL86:
 858              		.loc 1 187 0
 859 0016 2146     		mov	r1, r4
 860 0018 0C48     		ldr	r0, .L54+4
 861 001a FFF7FEFF 		bl	sdStart
 862              	.LVL87:
 863              		.loc 1 189 0
 864 001e FFF7FEFF 		bl	_Z7I2CInitv
 865              	.LVL88:
 866              		.loc 1 191 0
 867 0022 0094     		str	r4, [sp]
 868 0024 4FF49871 		mov	r1, #304
 869 0028 4022     		movs	r2, #64
 870 002a 094B     		ldr	r3, .L54+8
 871 002c 0948     		ldr	r0, .L54+12
 872 002e FFF7FEFF 		bl	chThdCreateStatic
 873              	.LVL89:
 874              		.loc 1 193 0
 875 0032 0094     		str	r4, [sp]
 876 0034 4FF49661 		mov	r1, #1200
 877 0038 FF22     		movs	r2, #255
 878 003a 074B     		ldr	r3, .L54+16
 879 003c 0748     		ldr	r0, .L54+20
 880 003e FFF7FEFF 		bl	chThdCreateStatic
 881              	.LVL90:
 882              		.loc 1 198 0
 883 0042 2046     		mov	r0, r4
 884 0044 02B0     		add	sp, sp, #8
 885              		.cfi_def_cfa_offset 8
 886              		@ sp needed
 887 0046 10BD     		pop	{r4, pc}
 888              	.L55:
 889              		.align	2
 890              	.L54:
 891 0048 00000000 		.word	SD2
 892 004c 00000000 		.word	SD1
 893 0050 00000000 		.word	_ZL7Thread1Pv
 894 0054 00000000 		.word	.LANCHOR2
 895 0058 00000000 		.word	_ZL9GPSThreadPv
 896 005c 00000000 		.word	.LANCHOR3
 897              		.cfi_endproc
 898              	.LFE44:
 899              		.fnend
 900              		.size	main, .-main
 901              		.global	twid_
 902              		.section	.bss.twid_,"aw",%nobits
 903              		.align	2
 904              		.set	.LANCHOR1,. + 0
 905              		.type	twid_, %object
 906              		.size	twid_, 8
 907              	twid_:
 908 0000 00000000 		.space	8
 908      00000000 
 909              		.section	.rodata._ZL4pins,"a",%progbits
 910              		.align	2
 911              		.set	.LANCHOR0,. + 0
ARM GAS  /tmp/cciqlQc9.s 			page 17


 912              		.type	_ZL4pins, %object
 913              		.size	_ZL4pins, 24
 914              	_ZL4pins:
 915 0000 08000000 		.word	8
 916 0004 000E0E40 		.word	1074662912
 917 0008 0B       		.byte	11
 918 0009 00       		.byte	0
 919 000a 00       		.byte	0
 920 000b 00       		.space	1
 921 000c 10000000 		.word	16
 922 0010 000E0E40 		.word	1074662912
 923 0014 0B       		.byte	11
 924 0015 00       		.byte	0
 925 0016 00       		.byte	0
 926 0017 00       		.space	1
 927              		.section	.bss._ZL9waThread1,"aw",%nobits
 928              		.align	3
 929              		.set	.LANCHOR2,. + 0
 930              		.type	_ZL9waThread1, %object
 931              		.size	_ZL9waThread1, 304
 932              	_ZL9waThread1:
 933 0000 00000000 		.space	304
 933      00000000 
 933      00000000 
 933      00000000 
 933      00000000 
 934              		.section	.rodata.str1.4,"aMS",%progbits,1
 935              		.align	2
 936              	.LC0:
 937 0000 24475052 		.ascii	"$GPRMC\000"
 937      4D4300
 938 0007 00       		.space	1
 939              	.LC1:
 940 0008 2C00     		.ascii	",\000"
 941 000a 0000     		.space	2
 942              	.LC2:
 943 000c 4C41543D 		.ascii	"LAT=\000"
 943      00
 944 0011 000000   		.space	3
 945              	.LC3:
 946 0014 3B00     		.ascii	";\000"
 947 0016 0000     		.space	2
 948              	.LC4:
 949 0018 434C4154 		.ascii	"CLAT=\000"
 949      3D00
 950 001e 0000     		.space	2
 951              	.LC5:
 952 0020 4C4F4E3D 		.ascii	"LON=\000"
 952      00
 953 0025 000000   		.space	3
 954              	.LC6:
 955 0028 434C4F4E 		.ascii	"CLON=\000"
 955      3D00
 956 002e 0000     		.space	2
 957              	.LC7:
 958 0030 53503D00 		.ascii	"SP=\000"
 959              	.LC8:
ARM GAS  /tmp/cciqlQc9.s 			page 18


 960 0034 56414C3D 		.ascii	"VAL=\000"
 960      00
 961 0039 000000   		.space	3
 962              	.LC9:
 963 003c 4D50553D 		.ascii	"MPU=\000"
 963      00
 964 0041 000000   		.space	3
 965              	.LC10:
 966 0044 25306400 		.ascii	"%0d\000"
 967              	.LC11:
 968 0048 0D0A00   		.ascii	"\015\012\000"
 969              		.section	.bss._ZL7AreaGPS,"aw",%nobits
 970              		.align	3
 971              		.set	.LANCHOR3,. + 0
 972              		.type	_ZL7AreaGPS, %object
 973              		.size	_ZL7AreaGPS, 1200
 974              	_ZL7AreaGPS:
 975 0000 00000000 		.space	1200
 975      00000000 
 975      00000000 
 975      00000000 
 975      00000000 
 976              		.text
 977              	.Letext0:
 978              		.file 2 "/usr/include/newlib/machine/_default_types.h"
 979              		.file 3 "/usr/include/newlib/sys/_stdint.h"
 980              		.file 4 "/usr/include/newlib/stdint.h"
 981              		.file 5 "ChibiOS/os/hal/platforms/AT91SAM3S/at91lib/SAM3S.h"
 982              		.file 6 "/usr/lib/gcc/arm-none-eabi/4.9.3/include/stddef.h"
 983              		.file 7 "ChibiOS/os/ports/GCC/ARMCMx/chtypes.h"
 984              		.file 8 "ChibiOS/os/kernel/include/chlists.h"
 985              		.file 9 "ChibiOS/os/kernel/include/chthreads.h"
 986              		.file 10 "ChibiOS/os/ports/GCC/ARMCMx/chcore_v7m.h"
 987              		.file 11 "ChibiOS/os/kernel/include/chmtx.h"
 988              		.file 12 "ChibiOS/os/kernel/include/chevents.h"
 989              		.file 13 "ChibiOS/os/kernel/include/chqueues.h"
 990              		.file 14 "ChibiOS/os/kernel/include/chioch.h"
 991              		.file 15 "ChibiOS/os/hal/platforms/AT91SAM3S/pal_lld.h"
 992              		.file 16 "ChibiOS/os/hal/include/serial.h"
 993              		.file 17 "ChibiOS/os/hal/platforms/AT91SAM3S/serial_lld.h"
 994              		.file 18 "ChibiOS/os/hal/platforms/AT91SAM3S/pio.h"
 995              		.file 19 "ChibiOS/os/hal/platforms/AT91SAM3S/async.h"
 996              		.file 20 "ChibiOS/os/hal/platforms/AT91SAM3S/atmel_twid.h"
 997              		.file 21 "ChibiOS/os/hal/platforms/AT91SAM3S/core_cm3.h"
 998              		.file 22 "ChibiOS/os/hal/platforms/AT91SAM3S/atmel_twi.h"
 999              		.file 23 "/usr/include/newlib/string.h"
 1000              		.file 24 "ChibiOS/os/various/chprintf.h"
 1001              		.file 25 "ChibiOS/os/hal/include/hal.h"
 1002              		.file 26 "ChibiOS/os/kernel/include/chsys.h"